Certificate:
    Data:
        Version: 3 (0x2)
        Serial Number: 1 (0x1)
    Signature Algorithm: sha256WithRSAEncryption
        Issuer: C=US, ST=California, L=Palo Alto, O=Impact, LLC, OU=HQ, CN=Joe Bloggs/emailAddress=joeb@impact.com
        Validity
            Not Before: Nov 11 00:39:16 2016 GMT
            Not After : Oct 30 00:39:16 2066 GMT
        Subject: C=AU, ST=New South Wales, L=Sydney, O=Impact Pty, Ltd, CN=Koala Bear
        Subject Public Key Info:
            Public Key Algorithm: rsaEncryption
                Public-Key: (1024 bit)
                Modulus:
                    00:e9:5b:51:70:f5:21:90:2a:0c:69:a5:3d:62:88:
                    27:b7:e2:f3:f0:7c:8e:db:f0:8a:dc:f9:e0:3b:8d:
                    bc:7f:a3:95:93:91:d1:66:b2:e3:42:d6:05:69:7a:
                    ea:1f:34:ab:d3:b9:04:23:8d:d1:97:ad:ab:ba:37:
                    e4:74:d9:d7:78:89:5e:51:02:64:1e:eb:7d:97:93:
                    4a:fc:05:e5:e2:b7:c0:56:c7:94:f4:64:4b:dc:f8:
                    d6:8b:84:96:28:89:95:3a:f6:c1:a8:0e:1b:9f:8e:
                    b1:32:30:78:4c:d2:36:2a:09:af:96:f1:63:62:f9:
                    b2:82:5f:7f:0a:f6:56:56:31
                Exponent: 65537 (0x10001)
        X509v3 extensions:
            X509v3 Subject Key Identifier: 
                C6:D2:61:BE:8C:32:0F:A1:FE:D0:CB:7C:9C:52:8A:A7:9D:D8:56:9C
            X509v3 Authority Key Identifier: 
                keyid:56:AA:6E:DF:C3:F2:CE:4F:4E:B3:81:EE:4F:D1:24:10:CD:87:3E:BC

            X509v3 Basic Constraints: 
                CA:FALSE
            X509v3 Key Usage: 
                Digital Signature, Key Encipherment
            X509v3 Subject Alternative Name: 
                DNS:impact.com, DNS:www.impact.com, DNS:mail.impact.com, DNS:ftp.impact.com
            Netscape Comment: 
                OpenSSL Generated Certificate
    Signature Algorithm: sha256WithRSAEncryption
         16:3c:0d:85:d0:5f:fa:cc:94:b2:74:5d:77:a9:7a:7a:6d:84:
         10:23:bc:bd:d0:49:5a:ad:61:f1:42:88:e3:9f:45:63:e6:02:
         04:29:16:96:81:e3:6e:6a:1e:c4:8a:1b:e1:70:1c:c5:63:ba:
         83:fb:94:39:cf:89:ac:1a:64:ea:f0:4f:5f:2e:e3:57:9f:b7:
         0a:cd:c6:08:d5:08:1c:e6:b0:b1:b1:c1:24:75:26:87:a0:87:
         d0:ab:e2:48:8d:57:c2:76:a5:c1:8f:a6:a4:39:4e:f8:48:81:
         49:11:43:c8:7d:88:a0:d5:d9:fc:f5:40:38:4a:6d:32:c7:4e:
         aa:cc
-----BEGIN CERTIFICATE-----
MIIDQDCCAqmgAwIBAgIBATANBgkqhkiG9w0BAQsFADCBjjELMAkGA1UEBhMCVVMx
EzARBgNVBAgMCkNhbGlmb3JuaWExEjAQBgNVBAcMCVBhbG8gQWx0bzEUMBIGA1UE
CgwLSW1wYWN0LCBMTEMxCzAJBgNVBAsMAkhRMRMwEQYDVQQDDApKb2UgQmxvZ2dz
MR4wHAYJKoZIhvcNAQkBFg9qb2ViQGltcGFjdC5jb20wIBcNMTYxMTExMDAzOTE2
WhgPMjA2NjEwMzAwMDM5MTZaMGcxCzAJBgNVBAYTAkFVMRgwFgYDVQQIDA9OZXcg
U291dGggV2FsZXMxDzANBgNVBAcMBlN5ZG5leTEYMBYGA1UECgwPSW1wYWN0IFB0
eSwgTHRkMRMwEQYDVQQDDApLb2FsYSBCZWFyMIGfMA0GCSqGSIb3DQEBAQUAA4GN
ADCBiQKBgQDpW1Fw9SGQKgxppT1iiCe34vPwfI7b8Irc+eA7jbx/o5WTkdFmsuNC
1gVpeuofNKvTuQQjjdGXrau6N+R02dd4iV5RAmQe632Xk0r8BeXit8BWx5T0ZEvc
+NaLhJYoiZU69sGoDhufjrEyMHhM0jYqCa+W8WNi+bKCX38K9lZWMQIDAQABo4HR
MIHOMB0GA1UdDgQWBBTG0mG+jDIPof7Qy3ycUoqnndhWnDAfBgNVHSMEGDAWgBRW
qm7fw/LOT06zge5P0SQQzYc+vDAJBgNVHRMEAjAAMAsGA1UdDwQEAwIFoDBGBgNV
HREEPzA9ggppbXBhY3QuY29tgg53d3cuaW1wYWN0LmNvbYIPbWFpbC5pbXBhY3Qu
Y29tgg5mdHAuaW1wYWN0LmNvbTAsBglghkgBhvhCAQ0EHxYdT3BlblNTTCBHZW5l
cmF0ZWQgQ2VydGlmaWNhdGUwDQYJKoZIhvcNAQELBQADgYEAFjwNhdBf+syUsnRd
d6l6em2EECO8vdBJWq1h8UKI459FY+YCBCkWloHjbmoexIob4XAcxWO6g/uUOc+J
rBpk6vBPXy7jV5+3Cs3GCNUIHOawsbHBJHUmh6CH0KviSI1XwnalwY+mpDlO+EiB
SRFDyH2IoNXZ/PVAOEptMsdOqsw=
-----END CERTIFICATE-----
